; Function Attrs: nounwind uwtable
define void @dt_lib_colorpicker_set_box_area(ptr noundef readonly captures(none) %0, ptr noundef %1) local_unnamed_addr #0 {
  %3 = getelementptr inbounds nuw i8, ptr %0, i64 16
  %4 = load ptr, ptr %3, align 8, !tbaa !173
  %.not = icmp eq ptr %4, null
  br i1 %.not, label %12, label %5

5:                                                ; preds = %2
  %6 = getelementptr inbounds nuw i8, ptr %0, i64 88
  %7 = load ptr, ptr %6, align 8, !tbaa !174
  %.not6 = icmp eq ptr %7, null
  br i1 %.not6, label %12, label %8

8:                                                ; preds = %5
  tail call void %7(ptr noundef nonnull %4, ptr noundef %1) #19
  %9 = load ptr, ptr getelementptr inbounds nuw (i8, ptr @darktable, i64 104), align 8, !tbaa !105
  %10 = load ptr, ptr %9, align 8, !tbaa !120
  %11 = tail call ptr @dt_ui_center(ptr noundef %10) #19
  tail call void @gtk_widget_grab_focus(ptr noundef %11) #19
  br label %12

12:                                               ; preds = %2, %5, %8
  ret void
}